; ModuleID = '9/622.c'
source_filename = "9/622.c"
target datalayout = "e-m:e-p270:32:32-p271:32:32-p272:64:64-i64:64-f80:128-n8:16:32:64-S128"
target triple = "x86_64-pc-linux-gnu"

@.str = private unnamed_addr constant [3 x i8] c"%d\00", align 1
@.str.1 = private unnamed_addr constant [6 x i8] c"%s %d\00", align 1
@.str.2 = private unnamed_addr constant [4 x i8] c"%s\0A\00", align 1

; Function Attrs: noinline nounwind uwtable
define dso_local i32 @main() #0 {
  %1 = alloca i32, align 4
  %2 = alloca i32, align 4
  %3 = alloca [100 x i32], align 16
  %4 = alloca [100 x i32], align 16
  %5 = alloca i32, align 4
  %6 = alloca i32, align 4
  %7 = alloca i32, align 4
  %8 = alloca i32, align 4
  %9 = alloca i32, align 4
  %10 = alloca i8*, align 8
  %11 = alloca i64, align 8
  %12 = alloca i64, align 8
  %13 = alloca [10 x i8], align 1
  store i32 0, i32* %1, align 4
  store i32 0, i32* %5, align 4
  %14 = call i32 (i8*, ...) @__isoc99_scanf(i8* getelementptr inbounds ([3 x i8], [3 x i8]* @.str, i64 0, i64 0), i32* %2)
  %15 = load i32, i32* %2, align 4
  %16 = zext i32 %15 to i64
  %17 = call i8* @llvm.stacksave()
  store i8* %17, i8** %10, align 8
  %18 = alloca [10 x i8], i64 %16, align 16
  store i64 %16, i64* %11, align 8
  %19 = load i32, i32* %2, align 4
  %20 = zext i32 %19 to i64
  %21 = alloca [10 x i8], i64 %20, align 16
  store i64 %20, i64* %12, align 8
  store i32 0, i32* %9, align 4
  br label %22

22:                                               ; preds = %35, %0
  %23 = load i32, i32* %9, align 4
  %24 = load i32, i32* %2, align 4
  %25 = icmp slt i32 %23, %24
  br i1 %25, label %26, label %38

26:                                               ; preds = %22
  %27 = load i32, i32* %9, align 4
  %28 = sext i32 %27 to i64
  %29 = getelementptr inbounds [10 x i8], [10 x i8]* %18, i64 %28
  %30 = getelementptr inbounds [10 x i8], [10 x i8]* %29, i64 0, i64 0
  %31 = load i32, i32* %9, align 4
  %32 = sext i32 %31 to i64
  %33 = getelementptr inbounds [100 x i32], [100 x i32]* %3, i64 0, i64 %32
  %34 = call i32 (i8*, ...) @__isoc99_scanf(i8* getelementptr inbounds ([6 x i8], [6 x i8]* @.str.1, i64 0, i64 0), i8* %30, i32* %33)
  br label %35

35:                                               ; preds = %26
  %36 = load i32, i32* %9, align 4
  %37 = add nsw i32 %36, 1
  store i32 %37, i32* %9, align 4
  br label %22

38:                                               ; preds = %22
  store i32 0, i32* %6, align 4
  store i32 0, i32* %9, align 4
  br label %39

39:                                               ; preds = %69, %38
  %40 = load i32, i32* %9, align 4
  %41 = load i32, i32* %2, align 4
  %42 = icmp slt i32 %40, %41
  br i1 %42, label %43, label %72

43:                                               ; preds = %39
  %44 = load i32, i32* %9, align 4
  %45 = sext i32 %44 to i64
  %46 = getelementptr inbounds [100 x i32], [100 x i32]* %3, i64 0, i64 %45
  %47 = load i32, i32* %46, align 4
  %48 = icmp sge i32 %47, 60
  br i1 %48, label %49, label %68

49:                                               ; preds = %43
  %50 = load i32, i32* %9, align 4
  %51 = sext i32 %50 to i64
  %52 = getelementptr inbounds [100 x i32], [100 x i32]* %3, i64 0, i64 %51
  %53 = load i32, i32* %52, align 4
  %54 = load i32, i32* %6, align 4
  %55 = sext i32 %54 to i64
  %56 = getelementptr inbounds [100 x i32], [100 x i32]* %4, i64 0, i64 %55
  store i32 %53, i32* %56, align 4
  %57 = load i32, i32* %6, align 4
  %58 = sext i32 %57 to i64
  %59 = getelementptr inbounds [10 x i8], [10 x i8]* %21, i64 %58
  %60 = getelementptr inbounds [10 x i8], [10 x i8]* %59, i64 0, i64 0
  %61 = load i32, i32* %9, align 4
  %62 = sext i32 %61 to i64
  %63 = getelementptr inbounds [10 x i8], [10 x i8]* %18, i64 %62
  %64 = getelementptr inbounds [10 x i8], [10 x i8]* %63, i64 0, i64 0
  %65 = call i8* @strcpy(i8* %60, i8* %64) #2
  %66 = load i32, i32* %6, align 4
  %67 = add nsw i32 %66, 1
  store i32 %67, i32* %6, align 4
  br label %68

68:                                               ; preds = %49, %43
  br label %69

69:                                               ; preds = %68
  %70 = load i32, i32* %9, align 4
  %71 = add nsw i32 %70, 1
  store i32 %71, i32* %9, align 4
  br label %39

72:                                               ; preds = %39
  %73 = load i32, i32* %6, align 4
  store i32 %73, i32* %7, align 4
  store i32 0, i32* %6, align 4
  br label %74

74:                                               ; preds = %144, %72
  %75 = load i32, i32* %6, align 4
  %76 = load i32, i32* %7, align 4
  %77 = sub nsw i32 %76, 1
  %78 = icmp slt i32 %75, %77
  br i1 %78, label %79, label %147

79:                                               ; preds = %74
  store i32 0, i32* %5, align 4
  br label %80

80:                                               ; preds = %140, %79
  %81 = load i32, i32* %5, align 4
  %82 = load i32, i32* %7, align 4
  %83 = sub nsw i32 %82, 1
  %84 = load i32, i32* %6, align 4
  %85 = sub nsw i32 %83, %84
  %86 = icmp slt i32 %81, %85
  br i1 %86, label %87, label %143

87:                                               ; preds = %80
  %88 = load i32, i32* %5, align 4
  %89 = sext i32 %88 to i64
  %90 = getelementptr inbounds [100 x i32], [100 x i32]* %4, i64 0, i64 %89
  %91 = load i32, i32* %90, align 4
  %92 = load i32, i32* %5, align 4
  %93 = add nsw i32 %92, 1
  %94 = sext i32 %93 to i64
  %95 = getelementptr inbounds [100 x i32], [100 x i32]* %4, i64 0, i64 %94
  %96 = load i32, i32* %95, align 4
  %97 = icmp slt i32 %91, %96
  br i1 %97, label %98, label %139

98:                                               ; preds = %87
  %99 = load i32, i32* %5, align 4
  %100 = sext i32 %99 to i64
  %101 = getelementptr inbounds [100 x i32], [100 x i32]* %4, i64 0, i64 %100
  %102 = load i32, i32* %101, align 4
  store i32 %102, i32* %8, align 4
  %103 = load i32, i32* %5, align 4
  %104 = add nsw i32 %103, 1
  %105 = sext i32 %104 to i64
  %106 = getelementptr inbounds [100 x i32], [100 x i32]* %4, i64 0, i64 %105
  %107 = load i32, i32* %106, align 4
  %108 = load i32, i32* %5, align 4
  %109 = sext i32 %108 to i64
  %110 = getelementptr inbounds [100 x i32], [100 x i32]* %4, i64 0, i64 %109
  store i32 %107, i32* %110, align 4
  %111 = load i32, i32* %8, align 4
  %112 = load i32, i32* %5, align 4
  %113 = add nsw i32 %112, 1
  %114 = sext i32 %113 to i64
  %115 = getelementptr inbounds [100 x i32], [100 x i32]* %4, i64 0, i64 %114
  store i32 %111, i32* %115, align 4
  %116 = getelementptr inbounds [10 x i8], [10 x i8]* %13, i64 0, i64 0
  %117 = load i32, i32* %5, align 4
  %118 = sext i32 %117 to i64
  %119 = getelementptr inbounds [10 x i8], [10 x i8]* %21, i64 %118
  %120 = getelementptr inbounds [10 x i8], [10 x i8]* %119, i64 0, i64 0
  %121 = call i8* @strcpy(i8* %116, i8* %120) #2
  %122 = load i32, i32* %5, align 4
  %123 = sext i32 %122 to i64
  %124 = getelementptr inbounds [10 x i8], [10 x i8]* %21, i64 %123
  %125 = getelementptr inbounds [10 x i8], [10 x i8]* %124, i64 0, i64 0
  %126 = load i32, i32* %5, align 4
  %127 = add nsw i32 %126, 1
  %128 = sext i32 %127 to i64
  %129 = getelementptr inbounds [10 x i8], [10 x i8]* %21, i64 %128
  %130 = getelementptr inbounds [10 x i8], [10 x i8]* %129, i64 0, i64 0
  %131 = call i8* @strcpy(i8* %125, i8* %130) #2
  %132 = load i32, i32* %5, align 4
  %133 = add nsw i32 %132, 1
  %134 = sext i32 %133 to i64
  %135 = getelementptr inbounds [10 x i8], [10 x i8]* %21, i64 %134
  %136 = getelementptr inbounds [10 x i8], [10 x i8]* %135, i64 0, i64 0
  %137 = getelementptr inbounds [10 x i8], [10 x i8]* %13, i64 0, i64 0
  %138 = call i8* @strcpy(i8* %136, i8* %137) #2
  br label %139

139:                                              ; preds = %98, %87
  br label %140

140:                                              ; preds = %139
  %141 = load i32, i32* %5, align 4
  %142 = add nsw i32 %141, 1
  store i32 %142, i32* %5, align 4
  br label %80

143:                                              ; preds = %80
  br label %144

144:                                              ; preds = %143
  %145 = load i32, i32* %6, align 4
  %146 = add nsw i32 %145, 1
  store i32 %146, i32* %6, align 4
  br label %74

147:                                              ; preds = %74
  store i32 0, i32* %5, align 4
  br label %148

148:                                              ; preds = %158, %147
  %149 = load i32, i32* %5, align 4
  %150 = load i32, i32* %7, align 4
  %151 = icmp slt i32 %149, %150
  br i1 %151, label %152, label %161

152:                                              ; preds = %148
  %153 = load i32, i32* %5, align 4
  %154 = sext i32 %153 to i64
  %155 = getelementptr inbounds [10 x i8], [10 x i8]* %21, i64 %154
  %156 = getelementptr inbounds [10 x i8], [10 x i8]* %155, i64 0, i64 0
  %157 = call i32 (i8*, ...) @printf(i8* getelementptr inbounds ([4 x i8], [4 x i8]* @.str.2, i64 0, i64 0), i8* %156)
  br label %158

158:                                              ; preds = %152
  %159 = load i32, i32* %5, align 4
  %160 = add nsw i32 %159, 1
  store i32 %160, i32* %5, align 4
  br label %148

161:                                              ; preds = %148
  store i32 0, i32* %9, align 4
  br label %162

162:                                              ; preds = %179, %161
  %163 = load i32, i32* %9, align 4
  %164 = load i32, i32* %2, align 4
  %165 = icmp slt i32 %163, %164
  br i1 %165, label %166, label %182

166:                                              ; preds = %162
  %167 = load i32, i32* %9, align 4
  %168 = sext i32 %167 to i64
  %169 = getelementptr inbounds [100 x i32], [100 x i32]* %3, i64 0, i64 %168
  %170 = load i32, i32* %169, align 4
  %171 = icmp slt i32 %170, 60
  br i1 %171, label %172, label %178

172:                                              ; preds = %166
  %173 = load i32, i32* %9, align 4
  %174 = sext i32 %173 to i64
  %175 = getelementptr inbounds [10 x i8], [10 x i8]* %18, i64 %174
  %176 = getelementptr inbounds [10 x i8], [10 x i8]* %175, i64 0, i64 0
  %177 = call i32 (i8*, ...) @printf(i8* getelementptr inbounds ([4 x i8], [4 x i8]* @.str.2, i64 0, i64 0), i8* %176)
  br label %178

178:                                              ; preds = %172, %166
  br label %179

179:                                              ; preds = %178
  %180 = load i32, i32* %9, align 4
  %181 = add nsw i32 %180, 1
  store i32 %181, i32* %9, align 4
  br label %162

182:                                              ; preds = %162
  %183 = load i8*, i8** %10, align 8
  call void @llvm.stackrestore(i8* %183)
  %184 = load i32, i32* %1, align 4
  ret i32 %184
}

declare dso_local i32 @__isoc99_scanf(i8*, ...) #1

; Function Attrs: nounwind
declare i8* @llvm.stacksave() #2

; Function Attrs: nounwind
declare dso_local i8* @strcpy(i8*, i8*) #3

declare dso_local i32 @printf(i8*, ...) #1

; Function Attrs: nounwind
declare void @llvm.stackrestore(i8*) #2


!llvm.module.flags = !{!0}
!llvm.ident = !{!1}

!0 = !{i32 1, !"wchar_size", i32 4}
!1 = !{!"clang version 10.0.0-4ubuntu1 "}
